target datalayout = "e-m:e-p270:32:32-p271:32:32-p272:64:64-i64:64-i128:128-f80:128-n8:16:32:64-S128"
target triple = "x86_64-pc-linux-gnu"

; Function Attrs: mustprogress nounwind uwtable
define noundef signext i8 @_ZN4base13HexDigitToIntEw(i32 noundef signext %0) #0 {
  %2 = alloca i8, align 1
  %3 = alloca i32, align 4
  store i32 %0, ptr %3, align 4, !tbaa !8
  %4 = load i32, ptr %3, align 4, !tbaa !8
  %5 = icmp sge i32 %4, 48
  br i1 %5, label %6, label %13

6:                                                ; preds = %1
  %7 = load i32, ptr %3, align 4, !tbaa !8
  %8 = icmp sle i32 %7, 57
  br i1 %8, label %9, label %13

9:                                                ; preds = %6
  %10 = load i32, ptr %3, align 4, !tbaa !8
  %11 = sub nsw i32 %10, 48
  %12 = trunc i32 %11 to i8
  store i8 %12, ptr %2, align 1
  br label %36

13:                                               ; preds = %6, %1
  %14 = load i32, ptr %3, align 4, !tbaa !8
  %15 = icmp sge i32 %14, 65
  br i1 %15, label %16, label %24

16:                                               ; preds = %13
  %17 = load i32, ptr %3, align 4, !tbaa !8
  %18 = icmp sle i32 %17, 70
  br i1 %18, label %19, label %24

19:                                               ; preds = %16
  %20 = load i32, ptr %3, align 4, !tbaa !8
  %21 = sub nsw i32 %20, 65
  %22 = add nsw i32 %21, 10
  %23 = trunc i32 %22 to i8
  store i8 %23, ptr %2, align 1
  br label %36

24:                                               ; preds = %16, %13
  %25 = load i32, ptr %3, align 4, !tbaa !8
  %26 = icmp sge i32 %25, 97
  br i1 %26, label %27, label %35

27:                                               ; preds = %24
  %28 = load i32, ptr %3, align 4, !tbaa !8
  %29 = icmp sle i32 %28, 102
  br i1 %29, label %30, label %35

30:                                               ; preds = %27
  %31 = load i32, ptr %3, align 4, !tbaa !8
  %32 = sub nsw i32 %31, 97
  %33 = add nsw i32 %32, 10
  %34 = trunc i32 %33 to i8
  store i8 %34, ptr %2, align 1
  br label %36

35:                                               ; preds = %27, %24
  store i8 0, ptr %2, align 1
  br label %36

36:                                               ; preds = %35, %30, %19, %9
  %37 = load i8, ptr %2, align 1
  ret i8 %37
}