; Function Attrs: mustprogress nofree norecurse nosync nounwind willreturn memory(none) uwtable
define noundef signext range(i8 0, 16) i8 @_ZN4base13HexDigitToIntEw(i32 noundef signext %0) local_unnamed_addr #8 {
  %2 = add i32 %0, -48
  %or.cond = icmp ult i32 %2, 10
  br i1 %or.cond, label %3, label %6

3:                                                ; preds = %1
  %4 = trunc nuw i32 %0 to i8
  %5 = add nsw i8 %4, -48
  br label %16

6:                                                ; preds = %1
  %7 = add i32 %0, -65
  %or.cond3 = icmp ult i32 %7, 6
  br i1 %or.cond3, label %8, label %11

8:                                                ; preds = %6
  %9 = trunc nuw i32 %0 to i8
  %10 = add nsw i8 %9, -55
  br label %16

11:                                               ; preds = %6
  %12 = add i32 %0, -97
  %or.cond5 = icmp ult i32 %12, 6
  br i1 %or.cond5, label %13, label %16

13:                                               ; preds = %11
  %14 = trunc nuw i32 %0 to i8
  %15 = add nsw i8 %14, -87
  br label %16

16:                                               ; preds = %11, %13, %8, %3
  %.0 = phi i8 [ %5, %3 ], [ %10, %8 ], [ %15, %13 ], [ 0, %11 ]
  ret i8 %.0
}